; Function Attrs: mustprogress uwtable
define hidden noundef zeroext i1 @_ZN11opencv_test15validateVPUTypeEv() local_unnamed_addr #4 personality ptr @__gxx_personality_v0 {
  %1 = load atomic i8, ptr @_ZGVZN11opencv_test15validateVPUTypeEvE6result acquire, align 8
  %2 = icmp eq i8 %1, 0
  br i1 %2, label %3, label %9, !prof !197

3:                                                ; preds = %0
  %4 = tail call i32 @__cxa_guard_acquire(ptr nonnull @_ZGVZN11opencv_test15validateVPUTypeEvE6result) #26
  %.not = icmp eq i32 %4, 0
  br i1 %.not, label %9, label %5

5:                                                ; preds = %3
  %6 = invoke fastcc noundef zeroext i1 @_ZN11opencv_testL16validateVPUType_Ev()
          to label %7 unwind label %12

7:                                                ; preds = %5
  %8 = zext i1 %6 to i8
  store i8 %8, ptr @_ZZN11opencv_test15validateVPUTypeEvE6result, align 1, !tbaa !198
  tail call void @__cxa_guard_release(ptr nonnull @_ZGVZN11opencv_test15validateVPUTypeEvE6result) #26
  br label %9

9:                                                ; preds = %7, %3, %0
  %10 = load i8, ptr @_ZZN11opencv_test15validateVPUTypeEvE6result, align 1, !tbaa !198, !range !28, !noundef !29
  %11 = trunc nuw i8 %10 to i1
  ret i1 %11

12:                                               ; preds = %5
  %13 = landingpad { ptr, i32 }
          cleanup
  tail call void @__cxa_guard_abort(ptr nonnull @_ZGVZN11opencv_test15validateVPUTypeEvE6result) #26
  resume { ptr, i32 } %13
}